target datalayout = "e-m:e-p270:32:32-p271:32:32-p272:64:64-i64:64-i128:128-f80:128-n8:16:32:64-S128"
target triple = "x86_64-pc-linux-gnu"

%struct.jpeg_decompress_struct = type { ptr, ptr, ptr, ptr, i32, i32, ptr, i32, i32, i32, i32, i32, i32, i32, double, i32, i32, i32, i32, i32, i32, i32, i32, i32, i32, i32, i32, i32, i32, i32, i32, i32, i32, ptr, i32, i32, i32, i32, i32, ptr, [4 x ptr], [4 x ptr], [4 x ptr], i32, ptr, i32, i32, [16 x i8], [16 x i8], [16 x i8], i32, i32, i8, i8, i8, i16, i16, i32, i8, i32, ptr, i32, i32, i32, i32, ptr, i32, [4 x ptr], i32, i32, i32, [10 x i32], i32, i32, i32, i32, i32, ptr, ptr, ptr, ptr, ptr, ptr, ptr, ptr, ptr, ptr, ptr }
%struct.jpeg_memory_mgr = type { ptr, ptr, ptr, ptr, ptr, ptr, ptr, ptr, ptr, ptr, ptr, i64, i64 }
%struct.my_source_mgr = type { %struct.jpeg_source_mgr, ptr, ptr, i32 }
%struct.jpeg_source_mgr = type { ptr, i64, ptr, ptr, ptr, ptr, ptr }
%struct.jpeg_error_mgr = type { ptr, ptr, ptr, ptr, ptr, i32, %union.anon, i32, i64, ptr, i32, ptr, i32, i32 }
%union.anon = type { [8 x i32], [48 x i8] }

; Function Attrs: nounwind uwtable
define void @jpeg_stdio_src(ptr noundef %0, ptr noundef %1) #0 {
  %3 = alloca ptr, align 8
  %4 = alloca ptr, align 8
  %5 = alloca ptr, align 8
  store ptr %0, ptr %3, align 8, !tbaa !3
  store ptr %1, ptr %4, align 8, !tbaa !8
  call void @llvm.lifetime.start.p0(i64 8, ptr %5) #3
  %6 = load ptr, ptr %3, align 8, !tbaa !3
  %7 = getelementptr inbounds nuw %struct.jpeg_decompress_struct, ptr %6, i32 0, i32 6
  %8 = load ptr, ptr %7, align 8, !tbaa !10
  %9 = icmp eq ptr %8, null
  br i1 %9, label %10, label %32

10:                                               ; preds = %2
  %11 = load ptr, ptr %3, align 8, !tbaa !3
  %12 = getelementptr inbounds nuw %struct.jpeg_decompress_struct, ptr %11, i32 0, i32 1
  %13 = load ptr, ptr %12, align 8, !tbaa !34
  %14 = getelementptr inbounds nuw %struct.jpeg_memory_mgr, ptr %13, i32 0, i32 0
  %15 = load ptr, ptr %14, align 8, !tbaa !35
  %16 = load ptr, ptr %3, align 8, !tbaa !3
  %17 = call ptr %15(ptr noundef %16, i32 noundef 0, i64 noundef 80)
  %18 = load ptr, ptr %3, align 8, !tbaa !3
  %19 = getelementptr inbounds nuw %struct.jpeg_decompress_struct, ptr %18, i32 0, i32 6
  store ptr %17, ptr %19, align 8, !tbaa !10
  %20 = load ptr, ptr %3, align 8, !tbaa !3
  %21 = getelementptr inbounds nuw %struct.jpeg_decompress_struct, ptr %20, i32 0, i32 6
  %22 = load ptr, ptr %21, align 8, !tbaa !10
  store ptr %22, ptr %5, align 8, !tbaa !38
  %23 = load ptr, ptr %3, align 8, !tbaa !3
  %24 = getelementptr inbounds nuw %struct.jpeg_decompress_struct, ptr %23, i32 0, i32 1
  %25 = load ptr, ptr %24, align 8, !tbaa !34
  %26 = getelementptr inbounds nuw %struct.jpeg_memory_mgr, ptr %25, i32 0, i32 0
  %27 = load ptr, ptr %26, align 8, !tbaa !35
  %28 = load ptr, ptr %3, align 8, !tbaa !3
  %29 = call ptr %27(ptr noundef %28, i32 noundef 0, i64 noundef 4096)
  %30 = load ptr, ptr %5, align 8, !tbaa !38
  %31 = getelementptr inbounds nuw %struct.my_source_mgr, ptr %30, i32 0, i32 2
  store ptr %29, ptr %31, align 8, !tbaa !39
  br label %51

32:                                               ; preds = %2
  %33 = load ptr, ptr %3, align 8, !tbaa !3
  %34 = getelementptr inbounds nuw %struct.jpeg_decompress_struct, ptr %33, i32 0, i32 6
  %35 = load ptr, ptr %34, align 8, !tbaa !10
  %36 = getelementptr inbounds nuw %struct.jpeg_source_mgr, ptr %35, i32 0, i32 2
  %37 = load ptr, ptr %36, align 8, !tbaa !42
  %38 = icmp ne ptr %37, @init_source
  br i1 %38, label %39, label %50

39:                                               ; preds = %32
  %40 = load ptr, ptr %3, align 8, !tbaa !3
  %41 = getelementptr inbounds nuw %struct.jpeg_decompress_struct, ptr %40, i32 0, i32 0
  %42 = load ptr, ptr %41, align 8, !tbaa !43
  %43 = getelementptr inbounds nuw %struct.jpeg_error_mgr, ptr %42, i32 0, i32 5
  store i32 23, ptr %43, align 8, !tbaa !44
  %44 = load ptr, ptr %3, align 8, !tbaa !3
  %45 = getelementptr inbounds nuw %struct.jpeg_decompress_struct, ptr %44, i32 0, i32 0
  %46 = load ptr, ptr %45, align 8, !tbaa !43
  %47 = getelementptr inbounds nuw %struct.jpeg_error_mgr, ptr %46, i32 0, i32 0
  %48 = load ptr, ptr %47, align 8, !tbaa !46
  %49 = load ptr, ptr %3, align 8, !tbaa !3
  call void %48(ptr noundef %49)
  br label %50

50:                                               ; preds = %39, %32
  br label %51

51:                                               ; preds = %50, %10
  %52 = load ptr, ptr %3, align 8, !tbaa !3
  %53 = getelementptr inbounds nuw %struct.jpeg_decompress_struct, ptr %52, i32 0, i32 6
  %54 = load ptr, ptr %53, align 8, !tbaa !10
  store ptr %54, ptr %5, align 8, !tbaa !38
  %55 = load ptr, ptr %5, align 8, !tbaa !38
  %56 = getelementptr inbounds nuw %struct.my_source_mgr, ptr %55, i32 0, i32 0
  %57 = getelementptr inbounds nuw %struct.jpeg_source_mgr, ptr %56, i32 0, i32 2
  store ptr @init_source, ptr %57, align 8, !tbaa !47
  %58 = load ptr, ptr %5, align 8, !tbaa !38
  %59 = getelementptr inbounds nuw %struct.my_source_mgr, ptr %58, i32 0, i32 0
  %60 = getelementptr inbounds nuw %struct.jpeg_source_mgr, ptr %59, i32 0, i32 3
  store ptr @fill_input_buffer, ptr %60, align 8, !tbaa !48
  %61 = load ptr, ptr %5, align 8, !tbaa !38
  %62 = getelementptr inbounds nuw %struct.my_source_mgr, ptr %61, i32 0, i32 0
  %63 = getelementptr inbounds nuw %struct.jpeg_source_mgr, ptr %62, i32 0, i32 4
  store ptr @skip_input_data, ptr %63, align 8, !tbaa !49
  %64 = load ptr, ptr %5, align 8, !tbaa !38
  %65 = getelementptr inbounds nuw %struct.my_source_mgr, ptr %64, i32 0, i32 0
  %66 = getelementptr inbounds nuw %struct.jpeg_source_mgr, ptr %65, i32 0, i32 5
  store ptr @jpeg_resync_to_restart, ptr %66, align 8, !tbaa !50
  %67 = load ptr, ptr %5, align 8, !tbaa !38
  %68 = getelementptr inbounds nuw %struct.my_source_mgr, ptr %67, i32 0, i32 0
  %69 = getelementptr inbounds nuw %struct.jpeg_source_mgr, ptr %68, i32 0, i32 6
  store ptr @term_source, ptr %69, align 8, !tbaa !51
  %70 = load ptr, ptr %4, align 8, !tbaa !8
  %71 = load ptr, ptr %5, align 8, !tbaa !38
  %72 = getelementptr inbounds nuw %struct.my_source_mgr, ptr %71, i32 0, i32 1
  store ptr %70, ptr %72, align 8, !tbaa !52
  %73 = load ptr, ptr %5, align 8, !tbaa !38
  %74 = getelementptr inbounds nuw %struct.my_source_mgr, ptr %73, i32 0, i32 0
  %75 = getelementptr inbounds nuw %struct.jpeg_source_mgr, ptr %74, i32 0, i32 1
  store i64 0, ptr %75, align 8, !tbaa !53
  %76 = load ptr, ptr %5, align 8, !tbaa !38
  %77 = getelementptr inbounds nuw %struct.my_source_mgr, ptr %76, i32 0, i32 0
  %78 = getelementptr inbounds nuw %struct.jpeg_source_mgr, ptr %77, i32 0, i32 0
  store ptr null, ptr %78, align 8, !tbaa !54
  call void @llvm.lifetime.end.p0(i64 8, ptr %5) #3
  ret void
}