; Function Attrs: nounwind uwtable
define void @jpeg_stdio_src(ptr noundef %0, ptr noundef %1) local_unnamed_addr #0 {
  %3 = getelementptr inbounds nuw i8, ptr %0, i64 40
  %4 = load ptr, ptr %3, align 8, !tbaa !3
  %5 = icmp eq ptr %4, null
  br i1 %5, label %6, label %15

6:                                                ; preds = %2
  %7 = getelementptr inbounds nuw i8, ptr %0, i64 8
  %8 = load ptr, ptr %7, align 8, !tbaa !30
  %9 = load ptr, ptr %8, align 8, !tbaa !31
  %10 = tail call ptr %9(ptr noundef nonnull %0, i32 noundef 0, i64 noundef 80) #6
  store ptr %10, ptr %3, align 8, !tbaa !3
  %11 = load ptr, ptr %7, align 8, !tbaa !30
  %12 = load ptr, ptr %11, align 8, !tbaa !31
  %13 = tail call ptr %12(ptr noundef nonnull %0, i32 noundef 0, i64 noundef 4096) #6
  %14 = getelementptr inbounds nuw i8, ptr %10, i64 64
  store ptr %13, ptr %14, align 8, !tbaa !34
  br label %22

15:                                               ; preds = %2
  %16 = getelementptr inbounds nuw i8, ptr %4, i64 16
  %17 = load ptr, ptr %16, align 8, !tbaa !38
  %.not = icmp eq ptr %17, @init_source
  br i1 %.not, label %22, label %18

18:                                               ; preds = %15
  %19 = load ptr, ptr %0, align 8, !tbaa !39
  %20 = getelementptr inbounds nuw i8, ptr %19, i64 40
  store i32 23, ptr %20, align 8, !tbaa !40
  %21 = load ptr, ptr %19, align 8, !tbaa !42
  tail call void %21(ptr noundef nonnull %0) #6
  br label %22

22:                                               ; preds = %15, %18, %6
  %23 = load ptr, ptr %3, align 8, !tbaa !3
  %24 = getelementptr inbounds nuw i8, ptr %23, i64 16
  store ptr @init_source, ptr %24, align 8, !tbaa !43
  %25 = getelementptr inbounds nuw i8, ptr %23, i64 24
  store ptr @fill_input_buffer, ptr %25, align 8, !tbaa !44
  %26 = getelementptr inbounds nuw i8, ptr %23, i64 32
  store ptr @skip_input_data, ptr %26, align 8, !tbaa !45
  %27 = getelementptr inbounds nuw i8, ptr %23, i64 40
  store ptr @jpeg_resync_to_restart, ptr %27, align 8, !tbaa !46
  %28 = getelementptr inbounds nuw i8, ptr %23, i64 48
  store ptr @term_source, ptr %28, align 8, !tbaa !47
  %29 = getelementptr inbounds nuw i8, ptr %23, i64 56
  store ptr %1, ptr %29, align 8, !tbaa !48
  tail call void @llvm.memset.p0.i64(ptr noundef nonnull align 8 dereferenceable(16) %23, i8 0, i64 16, i1 false)
  ret void
}